target datalayout = "e-m:e-p270:32:32-p271:32:32-p272:64:64-i64:64-i128:128-f80:128-n8:16:32:64-S128"
target triple = "x86_64-pc-linux-gnu"

@.str.7 = private unnamed_addr constant [7 x i8] c"global\00", align 1
@.str.8 = private unnamed_addr constant [8 x i8] c"base/%u\00", align 1
@.str.9 = private unnamed_addr constant [12 x i8] c"%s/%u/%s/%u\00", align 1
@.str.10 = private unnamed_addr constant [10 x i8] c"pg_tblspc\00", align 1
@.str.11 = private unnamed_addr constant [16 x i8] c"PG_18_202502112\00", align 1

; Function Attrs: nounwind uwtable
define dso_local ptr @GetDatabasePath(i32 noundef %0, i32 noundef %1) #0 {
  %3 = alloca ptr, align 8
  %4 = alloca i32, align 4
  %5 = alloca i32, align 4
  store i32 %0, ptr %4, align 4
  store i32 %1, ptr %5, align 4
  %6 = load i32, ptr %5, align 4
  %7 = icmp eq i32 %6, 1664
  br i1 %7, label %8, label %10

8:                                                ; preds = %2
  %9 = call ptr @pstrdup(ptr noundef @.str.7)
  store ptr %9, ptr %3, align 8
  br label %20

10:                                               ; preds = %2
  %11 = load i32, ptr %5, align 4
  %12 = icmp eq i32 %11, 1663
  br i1 %12, label %13, label %16

13:                                               ; preds = %10
  %14 = load i32, ptr %4, align 4
  %15 = call ptr (ptr, ...) @psprintf(ptr noundef @.str.8, i32 noundef %14)
  store ptr %15, ptr %3, align 8
  br label %20

16:                                               ; preds = %10
  %17 = load i32, ptr %5, align 4
  %18 = load i32, ptr %4, align 4
  %19 = call ptr (ptr, ...) @psprintf(ptr noundef @.str.9, ptr noundef @.str.10, i32 noundef %17, ptr noundef @.str.11, i32 noundef %18)
  store ptr %19, ptr %3, align 8
  br label %20

20:                                               ; preds = %16, %13, %8
  %21 = load ptr, ptr %3, align 8
  ret ptr %21
}