; Function Attrs: nounwind uwtable
define dso_local ptr @GetDatabasePath(i32 noundef %0, i32 noundef %1) local_unnamed_addr #0 {
  switch i32 %1, label %7 [
    i32 1664, label %3
    i32 1663, label %5
  ]

3:                                                ; preds = %2
  %4 = tail call ptr @pstrdup(ptr noundef nonnull @.str.7) #8
  br label %9

5:                                                ; preds = %2
  %6 = tail call ptr (ptr, ...) @psprintf(ptr noundef nonnull @.str.8, i32 noundef %0) #8
  br label %9

7:                                                ; preds = %2
  %8 = tail call ptr (ptr, ...) @psprintf(ptr noundef nonnull @.str.9, ptr noundef nonnull @.str.10, i32 noundef %1, ptr noundef nonnull @.str.11, i32 noundef %0) #8
  br label %9

9:                                                ; preds = %7, %5, %3
  %.0 = phi ptr [ %4, %3 ], [ %6, %5 ], [ %8, %7 ]
  ret ptr %.0
}